target datalayout = "e-m:e-p270:32:32-p271:32:32-p272:64:64-i64:64-i128:128-f80:128-n8:16:32:64-S128"
target triple = "x86_64-pc-linux-gnu"

%"struct.folly::f14::detail::F14EmptyTagVector" = type { %"struct.std::array", i8 }
%"struct.std::array" = type { [15 x i8] }
%"class.folly::F14FastSet" = type { %"class.folly::f14::detail::F14VectorSetImpl" }
%"class.folly::f14::detail::F14VectorSetImpl" = type { %"class.folly::f14::detail::F14BasicSet" }
%"class.folly::f14::detail::F14BasicSet" = type { %"class.folly::f14::detail::F14Table" }
%"class.folly::f14::detail::F14Table" = type { %"class.folly::f14::detail::VectorContainerPolicy", ptr, %"struct.folly::f14::detail::SizeAndChunkShiftAndPackedBegin" }
%"class.folly::f14::detail::VectorContainerPolicy" = type { ptr }
%"struct.folly::f14::detail::SizeAndChunkShiftAndPackedBegin" = type { %"struct.folly::f14::detail::PackedSizeAndChunkShift" }
%"struct.folly::f14::detail::PackedSizeAndChunkShift" = type { i64 }
%"struct.folly::settings::FrozenSettingProjects" = type { %"class.folly::F14FastSet" }

@_ZZN5folly3f146detail20getF14EmptyTagVectorEvE8instance = linkonce_odr constant %"struct.folly::f14::detail::F14EmptyTagVector" { %"struct.std::array" zeroinitializer, i8 -1 }, comdat, align 16

; Function Attrs: mustprogress nounwind uwtable
define linkonce_odr void @_ZNSt15__new_allocatorINSt7__cxx1112basic_stringIcSt11char_traitsIcESaIcEEEEC2ERKS6_(ptr noundef nonnull align 1 dereferenceable(1) %0, ptr noundef nonnull align 1 dereferenceable(1) %1) unnamed_addr #1 comdat align 2 {
  %3 = alloca ptr, align 8
  %4 = alloca ptr, align 8
  store ptr %0, ptr %3, align 8, !tbaa !49
  store ptr %1, ptr %4, align 8, !tbaa !49
  ret void
}

; Function Attrs: mustprogress nounwind uwtable
define linkonce_odr void @_ZNSaINSt7__cxx1112basic_stringIcSt11char_traitsIcESaIcEEEEC2ERKS5_(ptr noundef nonnull align 1 dereferenceable(1) %0, ptr noundef nonnull align 1 dereferenceable(1) %1) unnamed_addr #1 comdat align 2 {
  %3 = alloca ptr, align 8
  %4 = alloca ptr, align 8
  store ptr %0, ptr %3, align 8, !tbaa !38
  store ptr %1, ptr %4, align 8, !tbaa !38
  %5 = load ptr, ptr %3, align 8
  %6 = load ptr, ptr %4, align 8, !tbaa !38
  call void @_ZNSt15__new_allocatorINSt7__cxx1112basic_stringIcSt11char_traitsIcESaIcEEEEC2ERKS6_(ptr noundef nonnull align 1 dereferenceable(1) %5, ptr noundef nonnull align 1 dereferenceable(1) %6) #3
  ret void
}

; Function Attrs: mustprogress nounwind uwtable
define linkonce_odr noundef nonnull align 1 dereferenceable(1) ptr @_ZN5folly3f146detail12ObjectHolderILc65ESaINSt7__cxx1112basic_stringIcSt11char_traitsIcESaIcEEEELb1EEdeEv(ptr noundef nonnull align 1 dereferenceable(1) %0) #1 comdat align 2 {
  %2 = alloca ptr, align 8
  store ptr %0, ptr %2, align 8, !tbaa !57
  %3 = load ptr, ptr %2, align 8
  ret ptr %3
}

; Function Attrs: mustprogress nounwind uwtable
define linkonce_odr noundef nonnull align 1 dereferenceable(1) ptr @_ZN5folly3f146detail12ObjectHolderILc69ENS_26HeterogeneousAccessEqualToINSt7__cxx1112basic_stringIcSt11char_traitsIcESaIcEEEvEELb1EEdeEv(ptr noundef nonnull align 1 dereferenceable(1) %0) #1 comdat align 2 {
  %2 = alloca ptr, align 8
  store ptr %0, ptr %2, align 8, !tbaa !55
  %3 = load ptr, ptr %2, align 8
  ret ptr %3
}

; Function Attrs: mustprogress nounwind uwtable
define linkonce_odr noundef nonnull align 1 dereferenceable(1) ptr @_ZN5folly3f146detail12ObjectHolderILc72ENS_23HeterogeneousAccessHashINSt7__cxx1112basic_stringIcSt11char_traitsIcESaIcEEEvEELb1EEdeEv(ptr noundef nonnull align 1 dereferenceable(1) %0) #1 comdat align 2 {
  %2 = alloca ptr, align 8
  store ptr %0, ptr %2, align 8, !tbaa !53
  %3 = load ptr, ptr %2, align 8
  ret ptr %3
}

; Function Attrs: noinline noreturn nounwind uwtable
define linkonce_odr hidden void @__clang_call_terminate(ptr noundef %0) #5 comdat {
  %2 = call ptr @__cxa_begin_catch(ptr %0) #3
  call void @_ZSt9terminatev() #32
  unreachable
}

; Function Attrs: mustprogress nounwind uwtable
define linkonce_odr void @_ZN5folly3f146detail12ObjectHolderILc65ESaINSt7__cxx1112basic_stringIcSt11char_traitsIcESaIcEEEELb1EEC2IJS9_EEEDpOT_(ptr noundef nonnull align 1 dereferenceable(1) %0, ptr noundef nonnull align 1 dereferenceable(1) %1) unnamed_addr #1 comdat align 2 {
  %3 = alloca ptr, align 8
  %4 = alloca ptr, align 8
  store ptr %0, ptr %3, align 8, !tbaa !57
  store ptr %1, ptr %4, align 8, !tbaa !38
  %5 = load ptr, ptr %3, align 8
  %6 = load ptr, ptr %4, align 8, !tbaa !38
  call void @_ZNSaINSt7__cxx1112basic_stringIcSt11char_traitsIcESaIcEEEEC2ERKS5_(ptr noundef nonnull align 1 dereferenceable(1) %5, ptr noundef nonnull align 1 dereferenceable(1) %6) #3
  ret void
}

; Function Attrs: mustprogress uwtable
define linkonce_odr noundef nonnull align 1 dereferenceable(1) ptr @_ZN5folly3f146detail10BasePolicyINSt7__cxx1112basic_stringIcSt11char_traitsIcESaIcEEEvvvvjE5allocEv(ptr noundef nonnull align 1 dereferenceable(1) %0) #0 comdat align 2 {
  %2 = alloca ptr, align 8
  store ptr %0, ptr %2, align 8, !tbaa !51
  %3 = load ptr, ptr %2, align 8
  %4 = call noundef nonnull align 1 dereferenceable(1) ptr @_ZN5folly3f146detail12ObjectHolderILc65ESaINSt7__cxx1112basic_stringIcSt11char_traitsIcESaIcEEEELb1EEdeEv(ptr noundef nonnull align 1 dereferenceable(1) %3)
  ret ptr %4
}

; Function Attrs: mustprogress nounwind uwtable
define linkonce_odr void @_ZN5folly3f146detail12ObjectHolderILc69ENS_26HeterogeneousAccessEqualToINSt7__cxx1112basic_stringIcSt11char_traitsIcESaIcEEEvEELb1EEC2IJSA_EEEDpOT_(ptr noundef nonnull align 1 dereferenceable(1) %0, ptr noundef nonnull align 1 dereferenceable(1) %1) unnamed_addr #1 comdat align 2 {
  %3 = alloca ptr, align 8
  %4 = alloca ptr, align 8
  store ptr %0, ptr %3, align 8, !tbaa !55
  store ptr %1, ptr %4, align 8, !tbaa !44
  ret void
}

; Function Attrs: mustprogress uwtable
define linkonce_odr noundef nonnull align 1 dereferenceable(1) ptr @_ZN5folly3f146detail10BasePolicyINSt7__cxx1112basic_stringIcSt11char_traitsIcESaIcEEEvvvvjE8keyEqualEv(ptr noundef nonnull align 1 dereferenceable(1) %0) #0 comdat align 2 {
  %2 = alloca ptr, align 8
  store ptr %0, ptr %2, align 8, !tbaa !51
  %3 = load ptr, ptr %2, align 8
  %4 = call noundef nonnull align 1 dereferenceable(1) ptr @_ZN5folly3f146detail12ObjectHolderILc69ENS_26HeterogeneousAccessEqualToINSt7__cxx1112basic_stringIcSt11char_traitsIcESaIcEEEvEELb1EEdeEv(ptr noundef nonnull align 1 dereferenceable(1) %3)
  ret ptr %4
}

; Function Attrs: mustprogress nounwind uwtable
define linkonce_odr void @_ZN5folly3f146detail12ObjectHolderILc72ENS_23HeterogeneousAccessHashINSt7__cxx1112basic_stringIcSt11char_traitsIcESaIcEEEvEELb1EEC2IJSA_EEEDpOT_(ptr noundef nonnull align 1 dereferenceable(1) %0, ptr noundef nonnull align 1 dereferenceable(1) %1) unnamed_addr #1 comdat align 2 {
  %3 = alloca ptr, align 8
  %4 = alloca ptr, align 8
  store ptr %0, ptr %3, align 8, !tbaa !53
  store ptr %1, ptr %4, align 8, !tbaa !42
  ret void
}

; Function Attrs: mustprogress uwtable
define linkonce_odr noundef nonnull align 1 dereferenceable(1) ptr @_ZN5folly3f146detail10BasePolicyINSt7__cxx1112basic_stringIcSt11char_traitsIcESaIcEEEvvvvjE6hasherEv(ptr noundef nonnull align 1 dereferenceable(1) %0) #0 comdat align 2 {
  %2 = alloca ptr, align 8
  store ptr %0, ptr %2, align 8, !tbaa !51
  %3 = load ptr, ptr %2, align 8
  %4 = call noundef nonnull align 1 dereferenceable(1) ptr @_ZN5folly3f146detail12ObjectHolderILc72ENS_23HeterogeneousAccessHashINSt7__cxx1112basic_stringIcSt11char_traitsIcESaIcEEEvEELb1EEdeEv(ptr noundef nonnull align 1 dereferenceable(1) %3)
  ret ptr %4
}

; Function Attrs: inlinehint mustprogress nounwind uwtable
define linkonce_odr void @_ZSt4swapIN5folly3f146detail31SizeAndChunkShiftAndPackedBeginINS2_11F14ItemIterIPNS2_8F14ChunkIjEEEELb0EEEENSt9enable_ifIXsr6__and_ISt6__not_ISt15__is_tuple_likeIT_EESt21is_move_constructibleISD_ESt18is_move_assignableISD_EEE5valueEvE4typeERSD_SM_(ptr noundef nonnull align 8 dereferenceable(8) %0, ptr noundef nonnull align 8 dereferenceable(8) %1) #6 comdat {
  %3 = alloca ptr, align 8
  %4 = alloca ptr, align 8
  %5 = alloca %"struct.folly::f14::detail::SizeAndChunkShiftAndPackedBegin", align 8
  store ptr %0, ptr %3, align 8, !tbaa !47
  store ptr %1, ptr %4, align 8, !tbaa !47
  call void @llvm.lifetime.start.p0(i64 8, ptr %5) #3
  %6 = load ptr, ptr %3, align 8, !tbaa !47
  call void @llvm.memcpy.p0.p0.i64(ptr align 8 %5, ptr align 8 %6, i64 8, i1 false), !tbaa.struct !352
  %7 = load ptr, ptr %4, align 8, !tbaa !47
  %8 = load ptr, ptr %3, align 8, !tbaa !47
  call void @llvm.memcpy.p0.p0.i64(ptr align 8 %8, ptr align 8 %7, i64 8, i1 false), !tbaa.struct !352
  %9 = load ptr, ptr %4, align 8, !tbaa !47
  call void @llvm.memcpy.p0.p0.i64(ptr align 8 %9, ptr align 8 %5, i64 8, i1 false), !tbaa.struct !352
  call void @llvm.lifetime.end.p0(i64 8, ptr %5) #3
  ret void
}

; Function Attrs: inlinehint mustprogress nounwind uwtable
define linkonce_odr void @_ZSt4swapIPN5folly3f146detail8F14ChunkIjEEENSt9enable_ifIXsr6__and_ISt6__not_ISt15__is_tuple_likeIT_EESt21is_move_constructibleIS9_ESt18is_move_assignableIS9_EEE5valueEvE4typeERS9_SI_(ptr noundef nonnull align 8 dereferenceable(8) %0, ptr noundef nonnull align 8 dereferenceable(8) %1) #6 comdat {
  %3 = alloca ptr, align 8
  %4 = alloca ptr, align 8
  %5 = alloca ptr, align 8
  store ptr %0, ptr %3, align 8, !tbaa !181
  store ptr %1, ptr %4, align 8, !tbaa !181
  call void @llvm.lifetime.start.p0(i64 8, ptr %5) #3
  %6 = load ptr, ptr %3, align 8, !tbaa !181
  %7 = load ptr, ptr %6, align 8, !tbaa !96
  store ptr %7, ptr %5, align 8, !tbaa !96
  %8 = load ptr, ptr %4, align 8, !tbaa !181
  %9 = load ptr, ptr %8, align 8, !tbaa !96
  %10 = load ptr, ptr %3, align 8, !tbaa !181
  store ptr %9, ptr %10, align 8, !tbaa !96
  %11 = load ptr, ptr %5, align 8, !tbaa !96
  %12 = load ptr, ptr %4, align 8, !tbaa !181
  store ptr %11, ptr %12, align 8, !tbaa !96
  call void @llvm.lifetime.end.p0(i64 8, ptr %5) #3
  ret void
}

; Function Attrs: inlinehint mustprogress nounwind uwtable
define linkonce_odr void @_ZN5folly3f146detail23PackedSizeAndChunkShiftC2Ev(ptr noundef nonnull align 8 dereferenceable(8) %0) unnamed_addr #6 comdat align 2 {
  %2 = alloca ptr, align 8
  store ptr %0, ptr %2, align 8, !tbaa !60
  %3 = load ptr, ptr %2, align 8
  %4 = getelementptr inbounds nuw %"struct.folly::f14::detail::PackedSizeAndChunkShift", ptr %3, i32 0, i32 0
  store i64 0, ptr %4, align 8, !tbaa !62
  ret void
}

; Function Attrs: inlinehint mustprogress nounwind uwtable
define linkonce_odr noundef nonnull align 16 dereferenceable(16) ptr @_ZN5folly3f146detail20getF14EmptyTagVectorEv() #6 comdat {
  %1 = alloca i64, align 8
  call void @llvm.lifetime.start.p0(i64 8, ptr %1) #3
  store i64 ptrtoint (ptr @_ZZN5folly3f146detail20getF14EmptyTagVectorEvE8instance to i64), ptr %1, align 8, !tbaa !59
  br label %2

2:                                                ; preds = %0
  br label %3

3:                                                ; preds = %2
  br label %4

4:                                                ; preds = %3
  call void @llvm.lifetime.end.p0(i64 8, ptr %1) #3
  ret ptr @_ZZN5folly3f146detail20getF14EmptyTagVectorEvE8instance
}

; Function Attrs: mustprogress nounwind uwtable
define linkonce_odr void @_ZN5folly3f146detail10BasePolicyINSt7__cxx1112basic_stringIcSt11char_traitsIcESaIcEEEvvvvjEC2EOS9_(ptr noundef nonnull align 1 dereferenceable(1) %0, ptr noundef nonnull align 1 dereferenceable(1) %1) unnamed_addr #1 comdat align 2 personality ptr @__gxx_personality_v0 {
  %3 = alloca ptr, align 8
  %4 = alloca ptr, align 8
  store ptr %0, ptr %3, align 8, !tbaa !51
  store ptr %1, ptr %4, align 8, !tbaa !51
  %5 = load ptr, ptr %3, align 8
  %6 = load ptr, ptr %4, align 8, !tbaa !51
  %7 = invoke noundef nonnull align 1 dereferenceable(1) ptr @_ZN5folly3f146detail10BasePolicyINSt7__cxx1112basic_stringIcSt11char_traitsIcESaIcEEEvvvvjE6hasherEv(ptr noundef nonnull align 1 dereferenceable(1) %6)
          to label %8 unwind label %18

8:                                                ; preds = %2
  invoke void @_ZN5folly3f146detail12ObjectHolderILc72ENS_23HeterogeneousAccessHashINSt7__cxx1112basic_stringIcSt11char_traitsIcESaIcEEEvEELb1EEC2IJSA_EEEDpOT_(ptr noundef nonnull align 1 dereferenceable(1) %5, ptr noundef nonnull align 1 dereferenceable(1) %7)
          to label %9 unwind label %18

9:                                                ; preds = %8
  %10 = load ptr, ptr %4, align 8, !tbaa !51
  %11 = invoke noundef nonnull align 1 dereferenceable(1) ptr @_ZN5folly3f146detail10BasePolicyINSt7__cxx1112basic_stringIcSt11char_traitsIcESaIcEEEvvvvjE8keyEqualEv(ptr noundef nonnull align 1 dereferenceable(1) %10)
          to label %12 unwind label %18

12:                                               ; preds = %9
  invoke void @_ZN5folly3f146detail12ObjectHolderILc69ENS_26HeterogeneousAccessEqualToINSt7__cxx1112basic_stringIcSt11char_traitsIcESaIcEEEvEELb1EEC2IJSA_EEEDpOT_(ptr noundef nonnull align 1 dereferenceable(1) %5, ptr noundef nonnull align 1 dereferenceable(1) %11)
          to label %13 unwind label %18

13:                                               ; preds = %12
  %14 = load ptr, ptr %4, align 8, !tbaa !51
  %15 = invoke noundef nonnull align 1 dereferenceable(1) ptr @_ZN5folly3f146detail10BasePolicyINSt7__cxx1112basic_stringIcSt11char_traitsIcESaIcEEEvvvvjE5allocEv(ptr noundef nonnull align 1 dereferenceable(1) %14)
          to label %16 unwind label %18

16:                                               ; preds = %13
  invoke void @_ZN5folly3f146detail12ObjectHolderILc65ESaINSt7__cxx1112basic_stringIcSt11char_traitsIcESaIcEEEELb1EEC2IJS9_EEEDpOT_(ptr noundef nonnull align 1 dereferenceable(1) %5, ptr noundef nonnull align 1 dereferenceable(1) %15)
          to label %17 unwind label %18

17:                                               ; preds = %16
  ret void

18:                                               ; preds = %16, %13, %12, %9, %8, %2
  %19 = landingpad { ptr, i32 }
          catch ptr null
  %20 = extractvalue { ptr, i32 } %19, 0
  call void @__clang_call_terminate(ptr %20) #32
  unreachable
}

; Function Attrs: mustprogress nounwind uwtable
define linkonce_odr void @_ZN5folly3f146detail8F14TableINS1_21VectorContainerPolicyINSt7__cxx1112basic_stringIcSt11char_traitsIcESaIcEEEvvvvSt17integral_constantIbLb1EEEEE12swapContentsERSD_(ptr noundef nonnull align 8 dereferenceable(24) %0, ptr noundef nonnull align 8 dereferenceable(24) %1) #1 comdat align 2 {
  %3 = alloca ptr, align 8
  %4 = alloca ptr, align 8
  store ptr %0, ptr %3, align 8, !tbaa !28
  store ptr %1, ptr %4, align 8, !tbaa !28
  %5 = load ptr, ptr %3, align 8
  %6 = getelementptr inbounds nuw %"class.folly::f14::detail::F14Table", ptr %5, i32 0, i32 1
  %7 = load ptr, ptr %4, align 8, !tbaa !28
  %8 = getelementptr inbounds nuw %"class.folly::f14::detail::F14Table", ptr %7, i32 0, i32 1
  call void @_ZSt4swapIPN5folly3f146detail8F14ChunkIjEEENSt9enable_ifIXsr6__and_ISt6__not_ISt15__is_tuple_likeIT_EESt21is_move_constructibleIS9_ESt18is_move_assignableIS9_EEE5valueEvE4typeERS9_SI_(ptr noundef nonnull align 8 dereferenceable(8) %6, ptr noundef nonnull align 8 dereferenceable(8) %8) #3
  %9 = getelementptr inbounds nuw %"class.folly::f14::detail::F14Table", ptr %5, i32 0, i32 2
  %10 = load ptr, ptr %4, align 8, !tbaa !28
  %11 = getelementptr inbounds nuw %"class.folly::f14::detail::F14Table", ptr %10, i32 0, i32 2
  call void @_ZSt4swapIN5folly3f146detail31SizeAndChunkShiftAndPackedBeginINS2_11F14ItemIterIPNS2_8F14ChunkIjEEEELb0EEEENSt9enable_ifIXsr6__and_ISt6__not_ISt15__is_tuple_likeIT_EESt21is_move_constructibleISD_ESt18is_move_assignableISD_EEE5valueEvE4typeERSD_SM_(ptr noundef nonnull align 8 dereferenceable(8) %9, ptr noundef nonnull align 8 dereferenceable(8) %11) #3
  ret void
}

; Function Attrs: inlinehint mustprogress nounwind uwtable
define linkonce_odr void @_ZN5folly3f146detail31SizeAndChunkShiftAndPackedBeginINS1_11F14ItemIterIPNS1_8F14ChunkIjEEEELb0EEC2Ev(ptr noundef nonnull align 8 dereferenceable(8) %0) unnamed_addr #6 comdat align 2 {
  %2 = alloca ptr, align 8
  store ptr %0, ptr %2, align 8, !tbaa !47
  %3 = load ptr, ptr %2, align 8
  %4 = getelementptr inbounds nuw %"struct.folly::f14::detail::SizeAndChunkShiftAndPackedBegin", ptr %3, i32 0, i32 0
  call void @_ZN5folly3f146detail23PackedSizeAndChunkShiftC2Ev(ptr noundef nonnull align 8 dereferenceable(8) %4) #3
  ret void
}

; Function Attrs: mustprogress nounwind uwtable
define linkonce_odr noundef ptr @_ZN5folly3f146detail8F14ChunkIjE20getSomeEmptyInstanceEv() #1 comdat align 2 {
  %1 = call noundef nonnull align 16 dereferenceable(16) ptr @_ZN5folly3f146detail20getF14EmptyTagVectorEv() #3
  ret ptr %1
}

; Function Attrs: mustprogress nounwind uwtable
define linkonce_odr void @_ZN5folly3f146detail21VectorContainerPolicyINSt7__cxx1112basic_stringIcSt11char_traitsIcESaIcEEEvvvvSt17integral_constantIbLb1EEEC2EOSB_(ptr noundef nonnull align 8 dereferenceable(8) %0, ptr noundef nonnull align 8 dereferenceable(8) %1) unnamed_addr #1 comdat align 2 {
  %3 = alloca ptr, align 8
  %4 = alloca ptr, align 8
  store ptr %0, ptr %3, align 8, !tbaa !40
  store ptr %1, ptr %4, align 8, !tbaa !40
  %5 = load ptr, ptr %3, align 8
  %6 = load ptr, ptr %4, align 8, !tbaa !40
  call void @_ZN5folly3f146detail10BasePolicyINSt7__cxx1112basic_stringIcSt11char_traitsIcESaIcEEEvvvvjEC2EOS9_(ptr noundef nonnull align 1 dereferenceable(1) %5, ptr noundef nonnull align 1 dereferenceable(1) %6) #3
  %7 = getelementptr inbounds nuw %"class.folly::f14::detail::VectorContainerPolicy", ptr %5, i32 0, i32 0
  %8 = load ptr, ptr %4, align 8, !tbaa !40
  %9 = getelementptr inbounds nuw %"class.folly::f14::detail::VectorContainerPolicy", ptr %8, i32 0, i32 0
  %10 = load ptr, ptr %9, align 8, !tbaa !46
  store ptr %10, ptr %7, align 8, !tbaa !46
  %11 = load ptr, ptr %4, align 8, !tbaa !40
  %12 = getelementptr inbounds nuw %"class.folly::f14::detail::VectorContainerPolicy", ptr %11, i32 0, i32 0
  store ptr null, ptr %12, align 8, !tbaa !46
  ret void
}

; Function Attrs: mustprogress nounwind uwtable
define linkonce_odr void @_ZN5folly3f146detail8F14TableINS1_21VectorContainerPolicyINSt7__cxx1112basic_stringIcSt11char_traitsIcESaIcEEEvvvvSt17integral_constantIbLb1EEEEEC2EOSD_(ptr noundef nonnull align 8 dereferenceable(24) %0, ptr noundef nonnull align 8 dereferenceable(24) %1) unnamed_addr #1 comdat align 2 {
  %3 = alloca ptr, align 8
  %4 = alloca ptr, align 8
  store ptr %0, ptr %3, align 8, !tbaa !28
  store ptr %1, ptr %4, align 8, !tbaa !28
  %5 = load ptr, ptr %3, align 8
  %6 = load ptr, ptr %4, align 8, !tbaa !28
  call void @_ZN5folly3f146detail21VectorContainerPolicyINSt7__cxx1112basic_stringIcSt11char_traitsIcESaIcEEEvvvvSt17integral_constantIbLb1EEEC2EOSB_(ptr noundef nonnull align 8 dereferenceable(8) %5, ptr noundef nonnull align 8 dereferenceable(8) %6) #3
  %7 = getelementptr inbounds nuw %"class.folly::f14::detail::F14Table", ptr %5, i32 0, i32 1
  %8 = call noundef ptr @_ZN5folly3f146detail8F14ChunkIjE20getSomeEmptyInstanceEv() #3
  store ptr %8, ptr %7, align 8, !tbaa !30
  %9 = getelementptr inbounds nuw %"class.folly::f14::detail::F14Table", ptr %5, i32 0, i32 2
  call void @_ZN5folly3f146detail31SizeAndChunkShiftAndPackedBeginINS1_11F14ItemIterIPNS1_8F14ChunkIjEEEELb0EEC2Ev(ptr noundef nonnull align 8 dereferenceable(8) %9) #3
  %10 = load ptr, ptr %4, align 8, !tbaa !28
  call void @_ZN5folly3f146detail8F14TableINS1_21VectorContainerPolicyINSt7__cxx1112basic_stringIcSt11char_traitsIcESaIcEEEvvvvSt17integral_constantIbLb1EEEEE12swapContentsERSD_(ptr noundef nonnull align 8 dereferenceable(24) %5, ptr noundef nonnull align 8 dereferenceable(24) %10) #3
  ret void
}

; Function Attrs: mustprogress nounwind uwtable
define linkonce_odr void @_ZN5folly3f146detail11F14BasicSetINS1_21VectorContainerPolicyINSt7__cxx1112basic_stringIcSt11char_traitsIcESaIcEEEvvvvSt17integral_constantIbLb1EEEEEC2EOSD_(ptr noundef nonnull align 8 dereferenceable(24) %0, ptr noundef nonnull align 8 dereferenceable(24) %1) unnamed_addr #1 comdat align 2 {
  %3 = alloca ptr, align 8
  %4 = alloca ptr, align 8
  store ptr %0, ptr %3, align 8, !tbaa !26
  store ptr %1, ptr %4, align 8, !tbaa !26
  %5 = load ptr, ptr %3, align 8
  %6 = getelementptr inbounds nuw %"class.folly::f14::detail::F14BasicSet", ptr %5, i32 0, i32 0
  %7 = load ptr, ptr %4, align 8, !tbaa !26
  %8 = getelementptr inbounds nuw %"class.folly::f14::detail::F14BasicSet", ptr %7, i32 0, i32 0
  call void @_ZN5folly3f146detail8F14TableINS1_21VectorContainerPolicyINSt7__cxx1112basic_stringIcSt11char_traitsIcESaIcEEEvvvvSt17integral_constantIbLb1EEEEEC2EOSD_(ptr noundef nonnull align 8 dereferenceable(24) %6, ptr noundef nonnull align 8 dereferenceable(24) %8) #3
  ret void
}

; Function Attrs: inlinehint mustprogress nounwind uwtable
define linkonce_odr void @_ZN5folly3f146detail16F14VectorSetImplINSt7__cxx1112basic_stringIcSt11char_traitsIcESaIcEEENS_23HeterogeneousAccessHashIS8_vEENS_26HeterogeneousAccessEqualToIS8_vEESaIS8_ESt17integral_constantIbLb1EEEC2EOSG_(ptr noundef nonnull align 8 dereferenceable(24) %0, ptr noundef nonnull align 8 dereferenceable(24) %1) unnamed_addr #6 comdat align 2 {
  %3 = alloca ptr, align 8
  %4 = alloca ptr, align 8
  store ptr %0, ptr %3, align 8, !tbaa !24
  store ptr %1, ptr %4, align 8, !tbaa !24
  %5 = load ptr, ptr %3, align 8
  %6 = load ptr, ptr %4, align 8, !tbaa !24
  call void @_ZN5folly3f146detail11F14BasicSetINS1_21VectorContainerPolicyINSt7__cxx1112basic_stringIcSt11char_traitsIcESaIcEEEvvvvSt17integral_constantIbLb1EEEEEC2EOSD_(ptr noundef nonnull align 8 dereferenceable(24) %5, ptr noundef nonnull align 8 dereferenceable(24) %6) #3
  ret void
}

; Function Attrs: inlinehint mustprogress nounwind uwtable
define linkonce_odr void @_ZN5folly10F14FastSetINSt7__cxx1112basic_stringIcSt11char_traitsIcESaIcEEENS_23HeterogeneousAccessHashIS6_vEENS_26HeterogeneousAccessEqualToIS6_vEESaIS6_EEC2EOSC_(ptr noundef nonnull align 8 dereferenceable(24) %0, ptr noundef nonnull align 8 dereferenceable(24) %1) unnamed_addr #6 comdat align 2 {
  %3 = alloca ptr, align 8
  %4 = alloca ptr, align 8
  store ptr %0, ptr %3, align 8, !tbaa !7
  store ptr %1, ptr %4, align 8, !tbaa !7
  %5 = load ptr, ptr %3, align 8
  %6 = load ptr, ptr %4, align 8, !tbaa !7
  call void @_ZN5folly3f146detail16F14VectorSetImplINSt7__cxx1112basic_stringIcSt11char_traitsIcESaIcEEENS_23HeterogeneousAccessHashIS8_vEENS_26HeterogeneousAccessEqualToIS8_vEESaIS8_ESt17integral_constantIbLb1EEEC2EOSG_(ptr noundef nonnull align 8 dereferenceable(24) %5, ptr noundef nonnull align 8 dereferenceable(24) %6) #3
  ret void
}

; Function Attrs: mustprogress nounwind uwtable
define void @_ZN5folly8settings21FrozenSettingProjectsC2ENS_10F14FastSetINSt7__cxx1112basic_stringIcSt11char_traitsIcESaIcEEENS_23HeterogeneousAccessHashIS8_vEENS_26HeterogeneousAccessEqualToIS8_vEESaIS8_EEE(ptr noundef nonnull align 8 dereferenceable(24) %0, ptr noundef %1) unnamed_addr #1 align 2 {
  %3 = alloca ptr, align 8
  %4 = alloca ptr, align 8
  store ptr %0, ptr %3, align 8, !tbaa !350
  store ptr %1, ptr %4, align 8, !tbaa !7
  %5 = load ptr, ptr %3, align 8
  %6 = getelementptr inbounds nuw %"struct.folly::settings::FrozenSettingProjects", ptr %5, i32 0, i32 0
  call void @_ZN5folly10F14FastSetINSt7__cxx1112basic_stringIcSt11char_traitsIcESaIcEEENS_23HeterogeneousAccessHashIS6_vEENS_26HeterogeneousAccessEqualToIS6_vEESaIS6_EEC2EOSC_(ptr noundef nonnull align 8 dereferenceable(24) %6, ptr noundef nonnull align 8 dereferenceable(24) %1) #3
  ret void
}