; Function Attrs: mustprogress nofree norecurse nosync nounwind willreturn memory(argmem: readwrite) uwtable
define void @_ZN5folly8settings21FrozenSettingProjectsC2ENS_10F14FastSetINSt7__cxx1112basic_stringIcSt11char_traitsIcESaIcEEENS_23HeterogeneousAccessHashIS8_vEENS_26HeterogeneousAccessEqualToIS8_vEESaIS8_EEE(ptr noundef nonnull writeonly align 8 captures(none) dereferenceable(24) initializes((0, 24)) %0, ptr noundef captures(none) %1) unnamed_addr #24 align 2 personality ptr @__gxx_personality_v0 {
  %3 = load ptr, ptr %1, align 8, !tbaa !32
  store ptr %3, ptr %0, align 8, !tbaa !32
  store ptr null, ptr %1, align 8, !tbaa !32
  %4 = getelementptr inbounds nuw i8, ptr %0, i64 8
  store ptr @_ZZN5folly3f146detail20getF14EmptyTagVectorEvE8instance, ptr %4, align 8, !tbaa !8
  %5 = getelementptr inbounds nuw i8, ptr %0, i64 16
  store i64 0, ptr %5, align 8, !tbaa !31
  %6 = getelementptr inbounds nuw i8, ptr %1, i64 8
  %7 = load ptr, ptr %6, align 8, !tbaa !78
  store ptr %7, ptr %4, align 8, !tbaa !78
  store ptr @_ZZN5folly3f146detail20getF14EmptyTagVectorEvE8instance, ptr %6, align 8, !tbaa !78
  %8 = getelementptr inbounds nuw i8, ptr %1, i64 16
  %9 = load i64, ptr %8, align 8, !tbaa !74
  store i64 %9, ptr %5, align 8, !tbaa !74
  store i64 0, ptr %8, align 8, !tbaa !74
  ret void
}